target datalayout = "e-m:e-p270:32:32-p271:32:32-p272:64:64-i64:64-i128:128-f80:128-n8:16:32:64-S128"
target triple = "x86_64-unknown-linux-gnu"

%struct.btOverlapCallback = type { ptr }
%class.CleanPairCallback.9 = type { %struct.btOverlapCallback, ptr, ptr, ptr }

@_ZTV17btOverlapCallback = linkonce_odr dso_local unnamed_addr constant { [5 x ptr] } { [5 x ptr] [ptr null, ptr @_ZTI17btOverlapCallback, ptr @_ZN17btOverlapCallbackD2Ev, ptr @_ZN17btOverlapCallbackD0Ev, ptr @__cxa_pure_virtual] }, comdat, align 8

; Function Attrs: mustprogress nounwind uwtable
define linkonce_odr dso_local void @_ZN17btOverlapCallbackD2Ev(ptr noundef nonnull align 8 dereferenceable(8) %this) unnamed_addr #1 comdat align 2 {
entry:
  %this.addr = alloca ptr, align 8
  store ptr %this, ptr %this.addr, align 8
  ret void
}

; Function Attrs: mustprogress nounwind uwtable
define linkonce_odr dso_local void @_ZN17btOverlapCallbackC2Ev(ptr noundef nonnull align 8 dereferenceable(8) %this) unnamed_addr #1 comdat align 2 {
entry:
  %this.addr = alloca ptr, align 8
  store ptr %this, ptr %this.addr, align 8
  %this1 = load ptr, ptr %this.addr, align 8
  store ptr getelementptr inbounds ({ [5 x ptr] }, ptr @_ZTV17btOverlapCallback, i32 0, i32 0, i32 2), ptr %this1, align 8
  ret void
}

; Function Attrs: mustprogress nounwind uwtable
define internal void @_ZZN28btSortedOverlappingPairCache19cleanProxyFromPairsEP17btBroadphaseProxyP12btDispatcherEN17CleanPairCallbackD2Ev(ptr noundef nonnull align 8 dereferenceable(32) %this) unnamed_addr #1 align 2 {
entry:
  %this.addr = alloca ptr, align 8
  store ptr %this, ptr %this.addr, align 8
  %this1 = load ptr, ptr %this.addr, align 8
  call void @_ZN17btOverlapCallbackD2Ev(ptr noundef nonnull align 8 dereferenceable(8) %this1) #10
  ret void
}

; Function Attrs: mustprogress nounwind uwtable
define internal void @_ZZN28btSortedOverlappingPairCache19cleanProxyFromPairsEP17btBroadphaseProxyP12btDispatcherEN17CleanPairCallbackC2ES1_P22btOverlappingPairCacheS3_(ptr noundef nonnull align 8 dereferenceable(32) %this, ptr noundef %cleanProxy, ptr noundef %pairCache, ptr noundef %dispatcher) unnamed_addr #1 align 2 {
entry:
  %this.addr = alloca ptr, align 8
  %cleanProxy.addr = alloca ptr, align 8
  %pairCache.addr = alloca ptr, align 8
  %dispatcher.addr = alloca ptr, align 8
  store ptr %this, ptr %this.addr, align 8
  store ptr %cleanProxy, ptr %cleanProxy.addr, align 8
  store ptr %pairCache, ptr %pairCache.addr, align 8
  store ptr %dispatcher, ptr %dispatcher.addr, align 8
  %this1 = load ptr, ptr %this.addr, align 8
  call void @_ZN17btOverlapCallbackC2Ev(ptr noundef nonnull align 8 dereferenceable(8) %this1) #10
  store ptr getelementptr inbounds ({ [5 x ptr] }, ptr @_ZTVZN28btSortedOverlappingPairCache19cleanProxyFromPairsEP17btBroadphaseProxyP12btDispatcherE17CleanPairCallback, i32 0, i32 0, i32 2), ptr %this1, align 8
  %m_cleanProxy = getelementptr inbounds %class.CleanPairCallback.9, ptr %this1, i32 0, i32 1
  %0 = load ptr, ptr %cleanProxy.addr, align 8
  store ptr %0, ptr %m_cleanProxy, align 8
  %m_pairCache = getelementptr inbounds %class.CleanPairCallback.9, ptr %this1, i32 0, i32 2
  %1 = load ptr, ptr %pairCache.addr, align 8
  store ptr %1, ptr %m_pairCache, align 8
  %m_dispatcher = getelementptr inbounds %class.CleanPairCallback.9, ptr %this1, i32 0, i32 3
  %2 = load ptr, ptr %dispatcher.addr, align 8
  store ptr %2, ptr %m_dispatcher, align 8
  ret void
}

; Function Attrs: mustprogress uwtable
define dso_local void @_ZN28btSortedOverlappingPairCache19cleanProxyFromPairsEP17btBroadphaseProxyP12btDispatcher(ptr noundef nonnull align 8 dereferenceable(64) %this, ptr noundef %proxy, ptr noundef %dispatcher) unnamed_addr #2 align 2 personality ptr @__gxx_personality_v0 {
entry:
  %this.addr = alloca ptr, align 8
  %proxy.addr = alloca ptr, align 8
  %dispatcher.addr = alloca ptr, align 8
  %cleanPairs = alloca %class.CleanPairCallback.9, align 8
  %exn.slot = alloca ptr, align 8
  %ehselector.slot = alloca i32, align 4
  store ptr %this, ptr %this.addr, align 8
  store ptr %proxy, ptr %proxy.addr, align 8
  store ptr %dispatcher, ptr %dispatcher.addr, align 8
  %this1 = load ptr, ptr %this.addr, align 8
  %0 = load ptr, ptr %proxy.addr, align 8
  %1 = load ptr, ptr %dispatcher.addr, align 8
  call void @_ZZN28btSortedOverlappingPairCache19cleanProxyFromPairsEP17btBroadphaseProxyP12btDispatcherEN17CleanPairCallbackC2ES1_P22btOverlappingPairCacheS3_(ptr noundef nonnull align 8 dereferenceable(32) %cleanPairs, ptr noundef %0, ptr noundef %this1, ptr noundef %1)
  %2 = load ptr, ptr %dispatcher.addr, align 8
  %vtable = load ptr, ptr %this1, align 8
  %vfn = getelementptr inbounds ptr, ptr %vtable, i64 14
  %3 = load ptr, ptr %vfn, align 8
  invoke void %3(ptr noundef nonnull align 8 dereferenceable(64) %this1, ptr noundef %cleanPairs, ptr noundef %2)
          to label %invoke.cont unwind label %lpad

invoke.cont:                                      ; preds = %entry
  call void @_ZZN28btSortedOverlappingPairCache19cleanProxyFromPairsEP17btBroadphaseProxyP12btDispatcherEN17CleanPairCallbackD2Ev(ptr noundef nonnull align 8 dereferenceable(32) %cleanPairs) #10
  ret void

lpad:                                             ; preds = %entry
  %4 = landingpad { ptr, i32 }
          cleanup
  %5 = extractvalue { ptr, i32 } %4, 0
  store ptr %5, ptr %exn.slot, align 8
  %6 = extractvalue { ptr, i32 } %4, 1
  store i32 %6, ptr %ehselector.slot, align 4
  call void @_ZZN28btSortedOverlappingPairCache19cleanProxyFromPairsEP17btBroadphaseProxyP12btDispatcherEN17CleanPairCallbackD2Ev(ptr noundef nonnull align 8 dereferenceable(32) %cleanPairs) #10
  br label %eh.resume

eh.resume:                                        ; preds = %lpad
  %exn = load ptr, ptr %exn.slot, align 8
  %sel = load i32, ptr %ehselector.slot, align 4
  %lpad.val = insertvalue { ptr, i32 } poison, ptr %exn, 0
  %lpad.val2 = insertvalue { ptr, i32 } %lpad.val, i32 %sel, 1
  resume { ptr, i32 } %lpad.val2
}